; Function Attrs: mustprogress nounwind willreturn memory(write, argmem: readwrite, inaccessiblemem: readwrite) uwtable
define noundef i32 @yr_arena_append(ptr nocapture noundef %0, ptr nocapture noundef %1) local_unnamed_addr #10 {
  %3 = getelementptr inbounds i8, ptr %1, i64 8
  %4 = load ptr, ptr %3, align 8
  %5 = getelementptr inbounds i8, ptr %0, i64 16
  %6 = load ptr, ptr %5, align 8
  %7 = getelementptr inbounds i8, ptr %6, i64 48
  store ptr %4, ptr %7, align 8
  %8 = load ptr, ptr %5, align 8
  %9 = getelementptr inbounds i8, ptr %4, i64 56
  store ptr %8, ptr %9, align 8
  %10 = getelementptr inbounds i8, ptr %1, i64 16
  %11 = load ptr, ptr %10, align 8
  store ptr %11, ptr %5, align 8
  tail call void @free(ptr noundef %1) #11
  ret i32 0
}